target datalayout = "e-m:e-p270:32:32-p271:32:32-p272:64:64-i64:64-i128:128-f80:128-n8:16:32:64-S128"
target triple = "x86_64-pc-linux-gnu"

%struct.Abc_Cex_t_ = type { i32, i32, i32, i32, i32, [0 x i32] }

; Function Attrs: inlinehint nounwind uwtable
define internal void @Abc_InfoSetBit(ptr noundef %0, i32 noundef %1) #3 {
  %3 = alloca ptr, align 8
  %4 = alloca i32, align 4
  store ptr %0, ptr %3, align 8, !tbaa !45
  store i32 %1, ptr %4, align 4, !tbaa !10
  %5 = load i32, ptr %4, align 4, !tbaa !10
  %6 = and i32 %5, 31
  %7 = shl i32 1, %6
  %8 = load ptr, ptr %3, align 8, !tbaa !45
  %9 = load i32, ptr %4, align 4, !tbaa !10
  %10 = ashr i32 %9, 5
  %11 = sext i32 %10 to i64
  %12 = getelementptr inbounds i32, ptr %8, i64 %11
  %13 = load i32, ptr %12, align 4, !tbaa !10
  %14 = or i32 %13, %7
  store i32 %14, ptr %12, align 4, !tbaa !10
  ret void
}

; Function Attrs: inlinehint nounwind uwtable
define internal i32 @Abc_Lit2Var(i32 noundef %0) #3 {
  %2 = alloca i32, align 4
  store i32 %0, ptr %2, align 4, !tbaa !10
  %3 = load i32, ptr %2, align 4, !tbaa !10
  %4 = ashr i32 %3, 1
  ret i32 %4
}

; Function Attrs: nounwind uwtable
define ptr @Bmc_CexCareDeriveCex(ptr noundef %0, i32 noundef %1, ptr noundef %2, i32 noundef %3) #0 {
  %5 = alloca ptr, align 8
  %6 = alloca i32, align 4
  %7 = alloca ptr, align 8
  %8 = alloca i32, align 4
  %9 = alloca ptr, align 8
  %10 = alloca i32, align 4
  %11 = alloca i32, align 4
  store ptr %0, ptr %5, align 8, !tbaa !8
  store i32 %1, ptr %6, align 4, !tbaa !10
  store ptr %2, ptr %7, align 8, !tbaa !45
  store i32 %3, ptr %8, align 4, !tbaa !10
  call void @llvm.lifetime.start.p0(i64 8, ptr %9) #13
  call void @llvm.lifetime.start.p0(i64 4, ptr %10) #13
  %12 = load ptr, ptr %5, align 8, !tbaa !8
  %13 = getelementptr inbounds nuw %struct.Abc_Cex_t_, ptr %12, i32 0, i32 2
  %14 = load i32, ptr %13, align 4, !tbaa !50
  %15 = load ptr, ptr %5, align 8, !tbaa !8
  %16 = getelementptr inbounds nuw %struct.Abc_Cex_t_, ptr %15, i32 0, i32 3
  %17 = load i32, ptr %16, align 4, !tbaa !74
  %18 = load ptr, ptr %5, align 8, !tbaa !8
  %19 = getelementptr inbounds nuw %struct.Abc_Cex_t_, ptr %18, i32 0, i32 1
  %20 = load i32, ptr %19, align 4, !tbaa !16
  %21 = add nsw i32 %20, 1
  %22 = call ptr @Abc_CexAlloc(i32 noundef %14, i32 noundef %17, i32 noundef %21)
  store ptr %22, ptr %9, align 8, !tbaa !8
  %23 = load ptr, ptr %5, align 8, !tbaa !8
  %24 = getelementptr inbounds nuw %struct.Abc_Cex_t_, ptr %23, i32 0, i32 0
  %25 = load i32, ptr %24, align 4, !tbaa !42
  %26 = load ptr, ptr %9, align 8, !tbaa !8
  %27 = getelementptr inbounds nuw %struct.Abc_Cex_t_, ptr %26, i32 0, i32 0
  store i32 %25, ptr %27, align 4, !tbaa !42
  %28 = load ptr, ptr %5, align 8, !tbaa !8
  %29 = getelementptr inbounds nuw %struct.Abc_Cex_t_, ptr %28, i32 0, i32 1
  %30 = load i32, ptr %29, align 4, !tbaa !16
  %31 = load ptr, ptr %9, align 8, !tbaa !8
  %32 = getelementptr inbounds nuw %struct.Abc_Cex_t_, ptr %31, i32 0, i32 1
  store i32 %30, ptr %32, align 4, !tbaa !16
  store i32 0, ptr %10, align 4, !tbaa !10
  br label %33

33:                                               ; preds = %54, %4
  %34 = load i32, ptr %10, align 4, !tbaa !10
  %35 = load i32, ptr %8, align 4, !tbaa !10
  %36 = icmp slt i32 %34, %35
  br i1 %36, label %37, label %57

37:                                               ; preds = %33
  call void @llvm.lifetime.start.p0(i64 4, ptr %11) #13
  %38 = load ptr, ptr %7, align 8, !tbaa !45
  %39 = load i32, ptr %10, align 4, !tbaa !10
  %40 = sext i32 %39 to i64
  %41 = getelementptr inbounds i32, ptr %38, i64 %40
  %42 = load i32, ptr %41, align 4, !tbaa !10
  %43 = call i32 @Abc_Lit2Var(i32 noundef %42)
  %44 = load i32, ptr %6, align 4, !tbaa !10
  %45 = sub nsw i32 %43, %44
  store i32 %45, ptr %11, align 4, !tbaa !10
  %46 = load ptr, ptr %9, align 8, !tbaa !8
  %47 = getelementptr inbounds nuw %struct.Abc_Cex_t_, ptr %46, i32 0, i32 5
  %48 = getelementptr inbounds [0 x i32], ptr %47, i64 0, i64 0
  %49 = load ptr, ptr %9, align 8, !tbaa !8
  %50 = getelementptr inbounds nuw %struct.Abc_Cex_t_, ptr %49, i32 0, i32 2
  %51 = load i32, ptr %50, align 4, !tbaa !50
  %52 = load i32, ptr %11, align 4, !tbaa !10
  %53 = add nsw i32 %51, %52
  call void @Abc_InfoSetBit(ptr noundef %48, i32 noundef %53)
  call void @llvm.lifetime.end.p0(i64 4, ptr %11) #13
  br label %54

54:                                               ; preds = %37
  %55 = load i32, ptr %10, align 4, !tbaa !10
  %56 = add nsw i32 %55, 1
  store i32 %56, ptr %10, align 4, !tbaa !10
  br label %33, !llvm.loop !126

57:                                               ; preds = %33
  %58 = load ptr, ptr %9, align 8, !tbaa !8
  call void @llvm.lifetime.end.p0(i64 4, ptr %10) #13
  call void @llvm.lifetime.end.p0(i64 8, ptr %9) #13
  ret ptr %58
}