; Function Attrs: nounwind uwtable
define noundef ptr @Bmc_CexCareDeriveCex(ptr noundef readonly captures(none) %0, i32 noundef %1, ptr noundef readonly captures(none) %2, i32 noundef %3) local_unnamed_addr #0 {
  %5 = getelementptr inbounds nuw i8, ptr %0, i64 8
  %6 = load i32, ptr %5, align 4, !tbaa !46
  %7 = getelementptr inbounds nuw i8, ptr %0, i64 12
  %8 = load i32, ptr %7, align 4, !tbaa !69
  %9 = getelementptr inbounds nuw i8, ptr %0, i64 4
  %10 = load i32, ptr %9, align 4, !tbaa !35
  %11 = add nsw i32 %10, 1
  %12 = tail call ptr @Abc_CexAlloc(i32 noundef %6, i32 noundef %8, i32 noundef %11) #21
  %13 = load i32, ptr %0, align 4, !tbaa !44
  store i32 %13, ptr %12, align 4, !tbaa !44
  %14 = load i32, ptr %9, align 4, !tbaa !35
  %15 = getelementptr inbounds nuw i8, ptr %12, i64 4
  store i32 %14, ptr %15, align 4, !tbaa !35
  %16 = icmp sgt i32 %3, 0
  br i1 %16, label %.lr.ph, label %._crit_edge

.lr.ph:                                           ; preds = %4
  %17 = getelementptr inbounds nuw i8, ptr %12, i64 20
  %18 = getelementptr inbounds nuw i8, ptr %12, i64 8
  %wide.trip.count = zext nneg i32 %3 to i64
  br label %19

19:                                               ; preds = %.lr.ph, %19
  %indvars.iv = phi i64 [ 0, %.lr.ph ], [ %indvars.iv.next, %19 ]
  %20 = getelementptr inbounds nuw i32, ptr %2, i64 %indvars.iv
  %21 = load i32, ptr %20, align 4, !tbaa !32
  %22 = ashr i32 %21, 1
  %23 = sub nsw i32 %22, %1
  %24 = load i32, ptr %18, align 4, !tbaa !46
  %25 = add nsw i32 %23, %24
  %26 = and i32 %25, 31
  %27 = shl nuw i32 1, %26
  %28 = ashr i32 %25, 5
  %29 = sext i32 %28 to i64
  %30 = getelementptr inbounds i32, ptr %17, i64 %29
  %31 = load i32, ptr %30, align 4, !tbaa !32
  %32 = or i32 %27, %31
  store i32 %32, ptr %30, align 4, !tbaa !32
  %indvars.iv.next = add nuw nsw i64 %indvars.iv, 1
  %exitcond.not = icmp eq i64 %indvars.iv.next, %wide.trip.count
  br i1 %exitcond.not, label %._crit_edge, label %19, !llvm.loop !115

._crit_edge:                                      ; preds = %19, %4
  ret ptr %12
}